; Function Attrs: mustprogress nofree norecurse nosync nounwind willreturn memory(none) uwtable
define noundef double @_ZN2mu9ParserInt4SignEd(double noundef %0) #2 align 2 {
  %2 = fcmp oge double %0, 0.000000e+00
  %3 = select i1 %2, double 5.000000e-01, double -5.000000e-01
  %4 = fadd double %3, %0
  %5 = fptosi double %4 to i32
  %6 = icmp slt i32 %5, 0
  %7 = icmp ne i32 %5, 0
  %8 = uitofp i1 %7 to double
  %9 = select i1 %6, double -1.000000e+00, double %8
  ret double %9
}